; Function Attrs: mustprogress nofree norecurse nosync nounwind willreturn memory(read, inaccessiblemem: none) uwtable
define dso_local noundef zeroext i1 @_ZNK4llvm14FullDependence19isDirectionNegativeEv(ptr nocapture noundef nonnull readonly align 8 dereferenceable(56) %0) unnamed_addr #8 align 2 {
  %2 = getelementptr inbounds nuw i8, ptr %0, i64 40
  %3 = load i16, ptr %2, align 8
  %.not11 = icmp eq i16 %3, 0
  br i1 %.not11, label %.loopexit, label %.lr.ph

.lr.ph:                                           ; preds = %1
  %4 = zext i16 %3 to i64
  %5 = getelementptr inbounds nuw i8, ptr %0, i64 48
  %6 = load ptr, ptr %5, align 8
  %invariant.gep = getelementptr i8, ptr %6, i64 -16
  br label %8

7:                                                ; preds = %8
  %indvars.iv.next = add nuw nsw i64 %indvars.iv, 1
  %exitcond.not = icmp eq i64 %indvars.iv, %4
  br i1 %exitcond.not, label %.loopexit, label %8, !llvm.loop !21

8:                                                ; preds = %.lr.ph, %7
  %indvars.iv = phi i64 [ 1, %.lr.ph ], [ %indvars.iv.next, %7 ]
  %gep = getelementptr %"struct.llvm::Dependence::DVEntry", ptr %invariant.gep, i64 %indvars.iv
  %9 = load i8, ptr %gep, align 8
  %10 = and i8 %9, 7
  %11 = icmp eq i8 %10, 2
  br i1 %11, label %7, label %12

12:                                               ; preds = %8
  %13 = and i8 %9, 5
  %or.cond = icmp eq i8 %13, 4
  br label %.loopexit

.loopexit:                                        ; preds = %7, %1, %12
  %.0 = phi i1 [ %or.cond, %12 ], [ false, %1 ], [ false, %7 ]
  ret i1 %.0
}